; Function Attrs: mustprogress nounwind uwtable
define hidden noundef ptr @_ZN8XorVNode5IdealEP8PhaseGVNb(ptr noundef nonnull align 8 dereferenceable(64) %0, ptr noundef %1, i1 noundef zeroext %2) unnamed_addr #1 align 2 {
  %4 = getelementptr inbounds i8, ptr %0, i64 48
  %5 = load i32, ptr %4, align 8
  %6 = and i32 %5, 16384
  %.not = icmp eq i32 %6, 0
  br i1 %.not, label %7, label %41

7:                                                ; preds = %3
  %8 = getelementptr inbounds i8, ptr %0, i64 8
  %9 = load ptr, ptr %8, align 8
  %10 = getelementptr inbounds i8, ptr %9, i64 8
  %11 = load ptr, ptr %10, align 8
  %12 = getelementptr inbounds i8, ptr %9, i64 16
  %13 = load ptr, ptr %12, align 8
  %14 = icmp eq ptr %11, %13
  br i1 %14, label %15, label %41

15:                                               ; preds = %7
  %16 = getelementptr inbounds i8, ptr %0, i64 56
  %17 = load ptr, ptr %16, align 8
  %18 = getelementptr inbounds i8, ptr %17, i64 24
  %19 = load ptr, ptr %18, align 8
  %20 = tail call noundef zeroext i8 @_ZNK4Type24array_element_basic_typeEv(ptr noundef nonnull align 8 dereferenceable(20) %19) #8
  %21 = tail call noundef ptr @_ZN11PhaseValues7zeroconE9BasicType(ptr noundef nonnull align 8 dereferenceable(2400) %1, i8 noundef zeroext %20) #8
  %22 = load ptr, ptr %1, align 8
  %23 = load ptr, ptr %22, align 8
  %24 = tail call noundef ptr %23(ptr noundef nonnull align 8 dereferenceable(2400) %1, ptr noundef %21) #8
  %25 = load ptr, ptr %16, align 8
  %26 = getelementptr inbounds i8, ptr %25, i64 32
  %27 = load i32, ptr %26, align 8
  %28 = zext i8 %20 to i64
  %29 = getelementptr inbounds [20 x ptr], ptr @_ZN4Type17_const_basic_typeE, i64 0, i64 %28
  %30 = load ptr, ptr %29, align 8
  %31 = load ptr, ptr %0, align 8
  %32 = getelementptr inbounds i8, ptr %31, i64 40
  %33 = load ptr, ptr %32, align 8
  %34 = tail call noundef ptr %33(ptr noundef nonnull align 8 dereferenceable(64) %0) #8
  %35 = getelementptr inbounds i8, ptr %34, i64 16
  %36 = load i32, ptr %35, align 8
  %37 = icmp eq i32 %36, 11
  %38 = icmp ne ptr %34, null
  %39 = and i1 %38, %37
  %40 = tail call noundef ptr @_ZN10VectorNode13scalar2vectorEP4NodejPK4Typeb(ptr noundef %24, i32 noundef %27, ptr noundef %30, i1 noundef zeroext %39)
  br label %41

41:                                               ; preds = %3, %7, %15
  %.0 = phi ptr [ %40, %15 ], [ null, %7 ], [ null, %3 ]
  ret ptr %.0
}